(dp0
S'dictdict'
p1
(dp2
S'AdminGroup'
p3
(iMoinMoin.wikidicts
Group
p4
(dp5
S'name'
p6
g3
sS'_dict'
p7
(dp8
S'PhilipNeustrom'
p9
I1
sS'PaulIvanov'
p10
I1
sS'MikeIvanov'
p11
I1
ssbsS'EventsGroup'
p12
(iMoinMoin.wikidicts
Group
p13
(dp14
g6
g12
sg7
(dp15
S'PhilipNeustrom'
p16
I1
sS'GrahamKolbeins'
p17
I1
sS'MikeIvanov'
p18
I1
ssbsS'BannedGroup'
p19
(iMoinMoin.wikidicts
Group
p20
(dp21
g6
g19
sg7
(dp22
S'TestMe'
p23
I1
ssbssS'picklever'
p24
I1
sS'namespace_timestamp'
p25
I1105698078
sS'pageupdate_timestamp'
p26
I1105698078
s.