(dp0
S'TestMe'
p1
S'1119389709.26.17639'
p2
sS'PhilipTest'
p3
S'1120431242.07.52092'
p4
sS'HiThere'
p5
S'1120687218.49.41774'
p6
sS'PhilipNeustrom'
p7
S'1115095520.26.1787'
p8
sS'TestPhilip'
p9
S'1120448314.52.7640'
p10
sS'TestingThis'
p11
S'1120213988.93.58810'
p12
sS'AnAccount'
p13
S'1120448488.98.41231'
p14
s.