(dp0
S'dictdict'
p1
(dp2
S'AdminGroup'
p3
(iLocalWiki.wikidicts
Group
p4
(dp5
S'name'
p6
g3
sS'_dict'
p7
(dp8
S'TobinFricke'
p9
I1
sS'PhilipNeustrom'
p10
I1
ssbssS'picklever'
p11
I1
sS'namespace_timestamp'
p12
I1111659527
sS'pageupdate_timestamp'
p13
I1111659527
s.